target datalayout = "e-m:e-p270:32:32-p271:32:32-p272:64:64-i64:64-i128:128-f80:128-n8:16:32:64-S128"
target triple = "x86_64-pc-linux-gnu"

%struct.anon = type { i32, [0 x i8] }

@.str = private unnamed_addr constant [38 x i8] c"value too long for type character(%d)\00", align 1
@.str.1 = private unnamed_addr constant [10 x i8] c"varchar.c\00", align 1
@__func__.bpchar_input = private unnamed_addr constant [13 x i8] c"bpchar_input\00", align 1

; Function Attrs: nounwind uwtable
define internal ptr @bpchar_input(ptr noundef %0, i64 noundef %1, i32 noundef %2, ptr noundef %3) #0 {
  %5 = alloca ptr, align 8
  %6 = alloca ptr, align 8
  %7 = alloca i64, align 8
  %8 = alloca i32, align 4
  %9 = alloca ptr, align 8
  %10 = alloca ptr, align 8
  %11 = alloca ptr, align 8
  %12 = alloca i64, align 8
  %13 = alloca i64, align 8
  %14 = alloca i64, align 8
  %15 = alloca i64, align 8
  %16 = alloca ptr, align 8
  %17 = alloca i32, align 4
  store ptr %0, ptr %6, align 8
  store i64 %1, ptr %7, align 8
  store i32 %2, ptr %8, align 4
  store ptr %3, ptr %9, align 8
  call void @llvm.lifetime.start.p0(i64 8, ptr %10) #8
  call void @llvm.lifetime.start.p0(i64 8, ptr %11) #8
  call void @llvm.lifetime.start.p0(i64 8, ptr %12) #8
  %18 = load i32, ptr %8, align 4
  %19 = icmp slt i32 %18, 4
  br i1 %19, label %20, label %22

20:                                               ; preds = %4
  %21 = load i64, ptr %7, align 8
  store i64 %21, ptr %12, align 8
  br label %90

22:                                               ; preds = %4
  call void @llvm.lifetime.start.p0(i64 8, ptr %13) #8
  %23 = load i32, ptr %8, align 4
  %24 = sub i32 %23, 4
  %25 = sext i32 %24 to i64
  store i64 %25, ptr %12, align 8
  %26 = load ptr, ptr %6, align 8
  %27 = load i64, ptr %7, align 8
  %28 = trunc i64 %27 to i32
  %29 = call i32 @pg_mbstrlen_with_len(ptr noundef %26, i32 noundef %28)
  %30 = sext i32 %29 to i64
  store i64 %30, ptr %13, align 8
  %31 = load i64, ptr %13, align 8
  %32 = load i64, ptr %12, align 8
  %33 = icmp ugt i64 %31, %32
  br i1 %33, label %34, label %80

34:                                               ; preds = %22
  call void @llvm.lifetime.start.p0(i64 8, ptr %14) #8
  %35 = load ptr, ptr %6, align 8
  %36 = load i64, ptr %7, align 8
  %37 = trunc i64 %36 to i32
  %38 = load i64, ptr %12, align 8
  %39 = trunc i64 %38 to i32
  %40 = call i32 @pg_mbcharcliplen(ptr noundef %35, i32 noundef %37, i32 noundef %39)
  %41 = sext i32 %40 to i64
  store i64 %41, ptr %14, align 8
  call void @llvm.lifetime.start.p0(i64 8, ptr %15) #8
  %42 = load i64, ptr %14, align 8
  store i64 %42, ptr %15, align 8
  br label %43

43:                                               ; preds = %72, %34
  %44 = load i64, ptr %15, align 8
  %45 = load i64, ptr %7, align 8
  %46 = icmp ult i64 %44, %45
  br i1 %46, label %47, label %75

47:                                               ; preds = %43
  %48 = load ptr, ptr %6, align 8
  %49 = load i64, ptr %15, align 8
  %50 = getelementptr inbounds nuw i8, ptr %48, i64 %49
  %51 = load i8, ptr %50, align 1
  %52 = sext i8 %51 to i32
  %53 = icmp ne i32 %52, 32
  br i1 %53, label %54, label %71

54:                                               ; preds = %47
  br label %55

55:                                               ; preds = %54
  br label %56

56:                                               ; preds = %55
  call void @llvm.lifetime.start.p0(i64 8, ptr %16) #8
  %57 = load ptr, ptr %9, align 8
  store ptr %57, ptr %16, align 8
  %58 = load ptr, ptr %16, align 8
  %59 = call zeroext i1 @errsave_start(ptr noundef %58, ptr noundef null)
  br i1 %59, label %60, label %66

60:                                               ; preds = %56
  %61 = call i32 @errcode(i32 noundef 16777346)
  %62 = load i64, ptr %12, align 8
  %63 = trunc i64 %62 to i32
  %64 = call i32 (ptr, ...) @errmsg(ptr noundef @.str, i32 noundef %63)
  %65 = load ptr, ptr %16, align 8
  call void @errsave_finish(ptr noundef %65, ptr noundef @.str.1, i32 noundef 162, ptr noundef @__func__.bpchar_input)
  br label %66

66:                                               ; preds = %60, %56
  call void @llvm.lifetime.end.p0(i64 8, ptr %16) #8
  br label %67

67:                                               ; preds = %66
  br label %68

68:                                               ; preds = %67
  store ptr null, ptr %5, align 8
  store i32 1, ptr %17, align 4
  br label %77

69:                                               ; No predecessors!
  br label %70

70:                                               ; preds = %69
  br label %71

71:                                               ; preds = %70, %47
  br label %72

72:                                               ; preds = %71
  %73 = load i64, ptr %15, align 8
  %74 = add i64 %73, 1
  store i64 %74, ptr %15, align 8
  br label %43, !llvm.loop !4

75:                                               ; preds = %43
  %76 = load i64, ptr %14, align 8
  store i64 %76, ptr %7, align 8
  store i64 %76, ptr %12, align 8
  store i32 0, ptr %17, align 4
  br label %77

77:                                               ; preds = %75, %68
  call void @llvm.lifetime.end.p0(i64 8, ptr %15) #8
  call void @llvm.lifetime.end.p0(i64 8, ptr %14) #8
  %78 = load i32, ptr %17, align 4
  switch i32 %78, label %87 [
    i32 0, label %79
  ]

79:                                               ; preds = %77
  br label %86

80:                                               ; preds = %22
  %81 = load i64, ptr %7, align 8
  %82 = load i64, ptr %12, align 8
  %83 = load i64, ptr %13, align 8
  %84 = sub i64 %82, %83
  %85 = add i64 %81, %84
  store i64 %85, ptr %12, align 8
  br label %86

86:                                               ; preds = %80, %79
  store i32 0, ptr %17, align 4
  br label %87

87:                                               ; preds = %86, %77
  call void @llvm.lifetime.end.p0(i64 8, ptr %13) #8
  %88 = load i32, ptr %17, align 4
  switch i32 %88, label %118 [
    i32 0, label %89
  ]

89:                                               ; preds = %87
  br label %90

90:                                               ; preds = %89, %20
  %91 = load i64, ptr %12, align 8
  %92 = add i64 %91, 4
  %93 = call ptr @palloc(i64 noundef %92)
  store ptr %93, ptr %10, align 8
  %94 = load i64, ptr %12, align 8
  %95 = add i64 %94, 4
  %96 = trunc i64 %95 to i32
  %97 = shl i32 %96, 2
  %98 = load ptr, ptr %10, align 8
  %99 = getelementptr inbounds nuw %struct.anon, ptr %98, i32 0, i32 0
  store i32 %97, ptr %99, align 4
  %100 = load ptr, ptr %10, align 8
  %101 = getelementptr inbounds nuw %struct.anon, ptr %100, i32 0, i32 1
  %102 = getelementptr inbounds [0 x i8], ptr %101, i64 0, i64 0
  store ptr %102, ptr %11, align 8
  %103 = load ptr, ptr %11, align 8
  %104 = load ptr, ptr %6, align 8
  %105 = load i64, ptr %7, align 8
  call void @llvm.memcpy.p0.p0.i64(ptr align 1 %103, ptr align 1 %104, i64 %105, i1 false)
  %106 = load i64, ptr %12, align 8
  %107 = load i64, ptr %7, align 8
  %108 = icmp ugt i64 %106, %107
  br i1 %108, label %109, label %116

109:                                              ; preds = %90
  %110 = load ptr, ptr %11, align 8
  %111 = load i64, ptr %7, align 8
  %112 = getelementptr inbounds nuw i8, ptr %110, i64 %111
  %113 = load i64, ptr %12, align 8
  %114 = load i64, ptr %7, align 8
  %115 = sub i64 %113, %114
  call void @llvm.memset.p0.i64(ptr align 1 %112, i8 32, i64 %115, i1 false)
  br label %116

116:                                              ; preds = %109, %90
  %117 = load ptr, ptr %10, align 8
  store ptr %117, ptr %5, align 8
  store i32 1, ptr %17, align 4
  br label %118

118:                                              ; preds = %116, %87
  call void @llvm.lifetime.end.p0(i64 8, ptr %12) #8
  call void @llvm.lifetime.end.p0(i64 8, ptr %11) #8
  call void @llvm.lifetime.end.p0(i64 8, ptr %10) #8
  %119 = load ptr, ptr %5, align 8
  ret ptr %119
}